(dp0
S'oper_an_pl'
p1
(dp2
S'step'
p3
S'0'
p4
sS'levels'
p5
S'1/2/3/5/7/10/20/30/50/70/100/125/150/175/200/225/250/300/350/400/450/500/550/600/650/700/750/775/800/825/850/875/900/925/950/975/1000'
p6
sS'params'
p7
S'60.128/129.128/130.128/131.128/132.128/133.128/135.128/138.128/155.128/157.128/203.128/246.128/247.128/248.128'
p8
sS'time'
p9
S'00/06/12/18'
p10
ssS'oper_an_sfc'
p11
(dp12
g3
g4
sS'area'
p13
S'90/-180/-90/179.25'
p14
sg7
S'134.128/136.128/137.128/139.128/141.128/148.128/151.128/164.128/165.128/166.128/167.128/168.128/170.128/173.128/174.128/183.128/186.128/187.128/188.128/198.128/206.128/234.128/235.128/236.128/238.128/31.128/32.128/33.128/34.128/35.128/36.128/37.128/38.128/39.128/40.128/41.128/42.128/53.162/54.162/55.162/56.162/57.162/58.162/59.162/60.162/61.162/62.162/63.162/64.162/65.162/66.162/67.162/68.162/69.162/70.162/71.162/72.162/73.162/74.162/75.162/76.162/77.162/78.162/79.162/80.162/81.162/82.162/83.162/84.162/85.162/86.162/87.162/88.162/89.162/90.162/91.162/92.162'
p15
sg5
S'sfc'
p16
sg9
g10
ssS'oper_an_ml_sfc'
p17
(dp18
g3
g4
sg5
S'1'
p19
sg7
S'129.128/152.128'
p20
sg9
g10
ssS'oper_an_ml'
p21
(dp22
g3
g4
sg5
S'1/2/3/4/5/6/7/8/9/10/11/12/13/14/15/16/17/18/19/20/21/22/23/24/25/26/27/28/29/30/31/32/33/34/35/36/37/38/39/40/41/42/43/44/45/46/47/48/49/50/51/52/53/54/55/56/57/58/59/60'
p23
sg7
S'130.128/131.128/132.128/133.128/135.128/138.128/155.128/203.128/246.128/247.128/248.128'
p24
sg9
g10
ssS'oper_an_pv'
p25
(dp26
g3
g4
sg5
S'2000'
p27
sg7
S'3.128/54.128/129.128/131.128/132.128/133.128/203.128'
p28
sg9
g10
ssS'oper_an_pt'
p29
(dp30
g3
g4
sg5
S'265/275/285/300/315/330/350/370/395/430/475/530/600/700/850'
p31
sg7
S'53.128/54.128/60.128/131.128/132.128/133.128/138.128/155.128/203.128'
p32
sg9
g10
ssS'oper_fc_sfc'
p33
(dp34
g3
S'3/6/9/12'
p35
sg5
g16
sg7
S'20.128/31.128/32.128/33.128/34.128/35.128/36.128/37.128/38.128/39.128/40.128/41.128/42.128/44.128/45.128/49.128/50.128/57.128/58.128/59.128/78.128/79.128/134.128/136.128/137.128/139.128/141.128/142.128/143.128/144.128/145.128/146.128/147.128/148.128/151.128/159.128/164.128/165.128/166.128/167.128/168.128/169.128/170.128/175.128/176.128/177.128/178.128/179.128/180.128/181.128/182.128/183.128/186.128/187.128/188.128/189.128/195.128/196.128/197.128/198.128/201.128/202.128/205.128/206.128/208.128/209.128/210.128/211.128/212.128/228.128/229.128/230.128/231.128/232.128/235.128/236.128/238.128/239.128/240.128/243.128/244.128/245.128'
p36
sg9
S'00/12'
p37
ss.